target datalayout = "e-m:e-p270:32:32-p271:32:32-p272:64:64-i64:64-i128:128-f80:128-n8:16:32:64-S128"
target triple = "x86_64-pc-linux-gnu"

%struct._cmsContext_struct = type { ptr, ptr, [16 x ptr], %struct._cmsMemPluginChunkType }
%struct._cmsMemPluginChunkType = type { ptr, ptr, ptr, ptr, ptr, ptr }
%union.pthread_mutex_t = type { %struct.__pthread_mutex_s }
%struct.__pthread_mutex_s = type { i32, i32, i32, i32, i32, i16, i16, %struct.__pthread_internal_list }
%struct.__pthread_internal_list = type { ptr, ptr }

@_cmsContextPoolHeadMutex = internal global %union.pthread_mutex_t zeroinitializer, align 8
@_cmsContextPoolHead = internal global ptr null, align 8

; Function Attrs: nounwind uwtable
define hidden void @cmsUnregisterPlugins() #0 {
  call void @cmsUnregisterPluginsTHR(ptr noundef null)
  ret void
}

; Function Attrs: nounwind uwtable
define hidden void @cmsDeleteContext(ptr noundef %0) #0 {
  %2 = alloca ptr, align 8
  %3 = alloca ptr, align 8
  %4 = alloca %struct._cmsContext_struct, align 8
  %5 = alloca ptr, align 8
  store ptr %0, ptr %2, align 8
  %6 = load ptr, ptr %2, align 8
  %7 = icmp eq ptr %6, null
  br i1 %7, label %8, label %14

8:                                                ; preds = %1
  call void @cmsUnregisterPlugins()
  %9 = load ptr, ptr getelementptr inbounds (%struct._cmsContext_struct, ptr @globalContext, i32 0, i32 1), align 8
  %10 = icmp ne ptr %9, null
  br i1 %10, label %11, label %13

11:                                               ; preds = %8
  %12 = load ptr, ptr getelementptr inbounds (%struct._cmsContext_struct, ptr @globalContext, i32 0, i32 1), align 8
  call void @_cmsSubAllocDestroy(ptr noundef %12)
  br label %13

13:                                               ; preds = %11, %8
  store ptr null, ptr getelementptr inbounds (%struct._cmsContext_struct, ptr @globalContext, i32 0, i32 1), align 8
  br label %75

14:                                               ; preds = %1
  %15 = load ptr, ptr %2, align 8
  store ptr %15, ptr %3, align 8
  %16 = call i32 @InitContextMutex()
  %17 = getelementptr inbounds %struct._cmsContext_struct, ptr %4, i32 0, i32 3
  %18 = load ptr, ptr %3, align 8
  %19 = getelementptr inbounds %struct._cmsContext_struct, ptr %18, i32 0, i32 3
  call void @llvm.memcpy.p0.p0.i64(ptr align 8 %17, ptr align 8 %19, i64 48, i1 false)
  %20 = load ptr, ptr %3, align 8
  %21 = getelementptr inbounds %struct._cmsContext_struct, ptr %20, i32 0, i32 2
  %22 = getelementptr inbounds [16 x ptr], ptr %21, i64 0, i64 0
  %23 = load ptr, ptr %22, align 8
  %24 = getelementptr inbounds %struct._cmsContext_struct, ptr %4, i32 0, i32 2
  %25 = getelementptr inbounds [16 x ptr], ptr %24, i64 0, i64 0
  store ptr %23, ptr %25, align 8
  %26 = getelementptr inbounds %struct._cmsContext_struct, ptr %4, i32 0, i32 3
  %27 = getelementptr inbounds %struct._cmsContext_struct, ptr %4, i32 0, i32 2
  %28 = getelementptr inbounds [16 x ptr], ptr %27, i64 0, i64 4
  store ptr %26, ptr %28, align 8
  %29 = load ptr, ptr %2, align 8
  call void @cmsUnregisterPluginsTHR(ptr noundef %29)
  %30 = load ptr, ptr %3, align 8
  %31 = getelementptr inbounds %struct._cmsContext_struct, ptr %30, i32 0, i32 1
  %32 = load ptr, ptr %31, align 8
  %33 = icmp ne ptr %32, null
  br i1 %33, label %34, label %38

34:                                               ; preds = %14
  %35 = load ptr, ptr %3, align 8
  %36 = getelementptr inbounds %struct._cmsContext_struct, ptr %35, i32 0, i32 1
  %37 = load ptr, ptr %36, align 8
  call void @_cmsSubAllocDestroy(ptr noundef %37)
  br label %38

38:                                               ; preds = %34, %14
  %39 = load ptr, ptr %3, align 8
  %40 = getelementptr inbounds %struct._cmsContext_struct, ptr %39, i32 0, i32 1
  store ptr null, ptr %40, align 8
  %41 = call i32 @_cmsEnterCriticalSectionPrimitive(ptr noundef @_cmsContextPoolHeadMutex)
  %42 = load ptr, ptr @_cmsContextPoolHead, align 8
  %43 = load ptr, ptr %3, align 8
  %44 = icmp eq ptr %42, %43
  br i1 %44, label %45, label %49

45:                                               ; preds = %38
  %46 = load ptr, ptr %3, align 8
  %47 = getelementptr inbounds %struct._cmsContext_struct, ptr %46, i32 0, i32 0
  %48 = load ptr, ptr %47, align 8
  store ptr %48, ptr @_cmsContextPoolHead, align 8
  br label %72

49:                                               ; preds = %38
  %50 = load ptr, ptr @_cmsContextPoolHead, align 8
  store ptr %50, ptr %5, align 8
  br label %51

51:                                               ; preds = %67, %49
  %52 = load ptr, ptr %5, align 8
  %53 = icmp ne ptr %52, null
  br i1 %53, label %54, label %71

54:                                               ; preds = %51
  %55 = load ptr, ptr %5, align 8
  %56 = getelementptr inbounds %struct._cmsContext_struct, ptr %55, i32 0, i32 0
  %57 = load ptr, ptr %56, align 8
  %58 = load ptr, ptr %3, align 8
  %59 = icmp eq ptr %57, %58
  br i1 %59, label %60, label %66

60:                                               ; preds = %54
  %61 = load ptr, ptr %3, align 8
  %62 = getelementptr inbounds %struct._cmsContext_struct, ptr %61, i32 0, i32 0
  %63 = load ptr, ptr %62, align 8
  %64 = load ptr, ptr %5, align 8
  %65 = getelementptr inbounds %struct._cmsContext_struct, ptr %64, i32 0, i32 0
  store ptr %63, ptr %65, align 8
  br label %71

66:                                               ; preds = %54
  br label %67

67:                                               ; preds = %66
  %68 = load ptr, ptr %5, align 8
  %69 = getelementptr inbounds %struct._cmsContext_struct, ptr %68, i32 0, i32 0
  %70 = load ptr, ptr %69, align 8
  store ptr %70, ptr %5, align 8
  br label %51, !llvm.loop !13

71:                                               ; preds = %60, %51
  br label %72

72:                                               ; preds = %71, %45
  %73 = call i32 @_cmsLeaveCriticalSectionPrimitive(ptr noundef @_cmsContextPoolHeadMutex)
  %74 = load ptr, ptr %3, align 8
  call void @_cmsFree(ptr noundef %4, ptr noundef %74)
  br label %75

75:                                               ; preds = %72, %13
  ret void
}

; Function Attrs: nounwind uwtable
define internal i32 @_cmsLeaveCriticalSectionPrimitive(ptr noundef %0) #0 {
  %2 = alloca ptr, align 8
  store ptr %0, ptr %2, align 8
  %3 = load ptr, ptr %2, align 8
  %4 = call i32 @pthread_mutex_unlock(ptr noundef %3) #8
  ret i32 %4
}

; Function Attrs: nounwind uwtable
define internal i32 @_cmsEnterCriticalSectionPrimitive(ptr noundef %0) #0 {
  %2 = alloca ptr, align 8
  store ptr %0, ptr %2, align 8
  %3 = load ptr, ptr %2, align 8
  %4 = call i32 @pthread_mutex_lock(ptr noundef %3) #8
  ret i32 %4
}

; Function Attrs: nounwind uwtable
define internal i32 @InitContextMutex() #0 {
  ret i32 1
}

; Function Attrs: nounwind uwtable
define hidden ptr @_cmsGetContext(ptr noundef %0) #0 {
  %2 = alloca ptr, align 8
  %3 = alloca ptr, align 8
  %4 = alloca ptr, align 8
  %5 = alloca ptr, align 8
  store ptr %0, ptr %3, align 8
  %6 = load ptr, ptr %3, align 8
  store ptr %6, ptr %4, align 8
  %7 = load ptr, ptr %4, align 8
  %8 = icmp eq ptr %7, null
  br i1 %8, label %9, label %10

9:                                                ; preds = %1
  store ptr @globalContext, ptr %2, align 8
  br label %31

10:                                               ; preds = %1
  %11 = call i32 @InitContextMutex()
  %12 = call i32 @_cmsEnterCriticalSectionPrimitive(ptr noundef @_cmsContextPoolHeadMutex)
  %13 = load ptr, ptr @_cmsContextPoolHead, align 8
  store ptr %13, ptr %5, align 8
  br label %14

14:                                               ; preds = %25, %10
  %15 = load ptr, ptr %5, align 8
  %16 = icmp ne ptr %15, null
  br i1 %16, label %17, label %29

17:                                               ; preds = %14
  %18 = load ptr, ptr %4, align 8
  %19 = load ptr, ptr %5, align 8
  %20 = icmp eq ptr %18, %19
  br i1 %20, label %21, label %24

21:                                               ; preds = %17
  %22 = call i32 @_cmsLeaveCriticalSectionPrimitive(ptr noundef @_cmsContextPoolHeadMutex)
  %23 = load ptr, ptr %5, align 8
  store ptr %23, ptr %2, align 8
  br label %31

24:                                               ; preds = %17
  br label %25

25:                                               ; preds = %24
  %26 = load ptr, ptr %5, align 8
  %27 = getelementptr inbounds %struct._cmsContext_struct, ptr %26, i32 0, i32 0
  %28 = load ptr, ptr %27, align 8
  store ptr %28, ptr %5, align 8
  br label %14, !llvm.loop !10

29:                                               ; preds = %14
  %30 = call i32 @_cmsLeaveCriticalSectionPrimitive(ptr noundef @_cmsContextPoolHeadMutex)
  store ptr @globalContext, ptr %2, align 8
  br label %31

31:                                               ; preds = %29, %21, %9
  %32 = load ptr, ptr %2, align 8
  ret ptr %32
}

; Function Attrs: nounwind uwtable
define hidden ptr @cmsDupContext(ptr noundef %0, ptr noundef %1) #0 {
  %3 = alloca ptr, align 8
  %4 = alloca ptr, align 8
  %5 = alloca ptr, align 8
  %6 = alloca i32, align 4
  %7 = alloca ptr, align 8
  %8 = alloca ptr, align 8
  %9 = alloca ptr, align 8
  store ptr %0, ptr %4, align 8
  store ptr %1, ptr %5, align 8
  %10 = load ptr, ptr %4, align 8
  %11 = call ptr @_cmsGetContext(ptr noundef %10)
  store ptr %11, ptr %8, align 8
  %12 = load ptr, ptr %5, align 8
  %13 = icmp ne ptr %12, null
  br i1 %13, label %14, label %16

14:                                               ; preds = %2
  %15 = load ptr, ptr %5, align 8
  br label %21

16:                                               ; preds = %2
  %17 = load ptr, ptr %8, align 8
  %18 = getelementptr inbounds %struct._cmsContext_struct, ptr %17, i32 0, i32 2
  %19 = getelementptr inbounds [16 x ptr], ptr %18, i64 0, i64 0
  %20 = load ptr, ptr %19, align 8
  br label %21

21:                                               ; preds = %16, %14
  %22 = phi ptr [ %15, %14 ], [ %20, %16 ]
  store ptr %22, ptr %9, align 8
  %23 = load ptr, ptr %4, align 8
  %24 = call ptr @_cmsMalloc(ptr noundef %23, i32 noundef 192)
  store ptr %24, ptr %7, align 8
  %25 = load ptr, ptr %7, align 8
  %26 = icmp eq ptr %25, null
  br i1 %26, label %27, label %28

27:                                               ; preds = %21
  store ptr null, ptr %3, align 8
  br label %112

28:                                               ; preds = %21
  %29 = call i32 @InitContextMutex()
  %30 = icmp ne i32 %29, 0
  br i1 %30, label %32, label %31

31:                                               ; preds = %28
  store ptr null, ptr %3, align 8
  br label %112

32:                                               ; preds = %28
  %33 = load ptr, ptr %7, align 8
  %34 = getelementptr inbounds %struct._cmsContext_struct, ptr %33, i32 0, i32 3
  %35 = load ptr, ptr %8, align 8
  %36 = getelementptr inbounds %struct._cmsContext_struct, ptr %35, i32 0, i32 3
  call void @llvm.memcpy.p0.p0.i64(ptr align 8 %34, ptr align 8 %36, i64 48, i1 false)
  %37 = call i32 @_cmsEnterCriticalSectionPrimitive(ptr noundef @_cmsContextPoolHeadMutex)
  %38 = load ptr, ptr @_cmsContextPoolHead, align 8
  %39 = load ptr, ptr %7, align 8
  %40 = getelementptr inbounds %struct._cmsContext_struct, ptr %39, i32 0, i32 0
  store ptr %38, ptr %40, align 8
  %41 = load ptr, ptr %7, align 8
  store ptr %41, ptr @_cmsContextPoolHead, align 8
  %42 = call i32 @_cmsLeaveCriticalSectionPrimitive(ptr noundef @_cmsContextPoolHeadMutex)
  %43 = load ptr, ptr %9, align 8
  %44 = load ptr, ptr %7, align 8
  %45 = getelementptr inbounds %struct._cmsContext_struct, ptr %44, i32 0, i32 2
  %46 = getelementptr inbounds [16 x ptr], ptr %45, i64 0, i64 0
  store ptr %43, ptr %46, align 8
  %47 = load ptr, ptr %7, align 8
  %48 = getelementptr inbounds %struct._cmsContext_struct, ptr %47, i32 0, i32 3
  %49 = load ptr, ptr %7, align 8
  %50 = getelementptr inbounds %struct._cmsContext_struct, ptr %49, i32 0, i32 2
  %51 = getelementptr inbounds [16 x ptr], ptr %50, i64 0, i64 4
  store ptr %48, ptr %51, align 8
  %52 = load ptr, ptr %7, align 8
  %53 = call ptr @_cmsCreateSubAlloc(ptr noundef %52, i32 noundef 176)
  %54 = load ptr, ptr %7, align 8
  %55 = getelementptr inbounds %struct._cmsContext_struct, ptr %54, i32 0, i32 1
  store ptr %53, ptr %55, align 8
  %56 = load ptr, ptr %7, align 8
  %57 = getelementptr inbounds %struct._cmsContext_struct, ptr %56, i32 0, i32 1
  %58 = load ptr, ptr %57, align 8
  %59 = icmp eq ptr %58, null
  br i1 %59, label %60, label %62

60:                                               ; preds = %32
  %61 = load ptr, ptr %7, align 8
  call void @cmsDeleteContext(ptr noundef %61)
  store ptr null, ptr %3, align 8
  br label %112

62:                                               ; preds = %32
  %63 = load ptr, ptr %7, align 8
  %64 = load ptr, ptr %8, align 8
  call void @_cmsAllocLogErrorChunk(ptr noundef %63, ptr noundef %64)
  %65 = load ptr, ptr %7, align 8
  %66 = load ptr, ptr %8, align 8
  call void @_cmsAllocAlarmCodesChunk(ptr noundef %65, ptr noundef %66)
  %67 = load ptr, ptr %7, align 8
  %68 = load ptr, ptr %8, align 8
  call void @_cmsAllocAdaptationStateChunk(ptr noundef %67, ptr noundef %68)
  %69 = load ptr, ptr %7, align 8
  %70 = load ptr, ptr %8, align 8
  call void @_cmsAllocMemPluginChunk(ptr noundef %69, ptr noundef %70)
  %71 = load ptr, ptr %7, align 8
  %72 = load ptr, ptr %8, align 8
  call void @_cmsAllocInterpPluginChunk(ptr noundef %71, ptr noundef %72)
  %73 = load ptr, ptr %7, align 8
  %74 = load ptr, ptr %8, align 8
  call void @_cmsAllocCurvesPluginChunk(ptr noundef %73, ptr noundef %74)
  %75 = load ptr, ptr %7, align 8
  %76 = load ptr, ptr %8, align 8
  call void @_cmsAllocFormattersPluginChunk(ptr noundef %75, ptr noundef %76)
  %77 = load ptr, ptr %7, align 8
  %78 = load ptr, ptr %8, align 8
  call void @_cmsAllocTagTypePluginChunk(ptr noundef %77, ptr noundef %78)
  %79 = load ptr, ptr %7, align 8
  %80 = load ptr, ptr %8, align 8
  call void @_cmsAllocMPETypePluginChunk(ptr noundef %79, ptr noundef %80)
  %81 = load ptr, ptr %7, align 8
  %82 = load ptr, ptr %8, align 8
  call void @_cmsAllocTagPluginChunk(ptr noundef %81, ptr noundef %82)
  %83 = load ptr, ptr %7, align 8
  %84 = load ptr, ptr %8, align 8
  call void @_cmsAllocIntentsPluginChunk(ptr noundef %83, ptr noundef %84)
  %85 = load ptr, ptr %7, align 8
  %86 = load ptr, ptr %8, align 8
  call void @_cmsAllocOptimizationPluginChunk(ptr noundef %85, ptr noundef %86)
  %87 = load ptr, ptr %7, align 8
  %88 = load ptr, ptr %8, align 8
  call void @_cmsAllocTransformPluginChunk(ptr noundef %87, ptr noundef %88)
  %89 = load ptr, ptr %7, align 8
  %90 = load ptr, ptr %8, align 8
  call void @_cmsAllocMutexPluginChunk(ptr noundef %89, ptr noundef %90)
  %91 = load ptr, ptr %7, align 8
  %92 = load ptr, ptr %8, align 8
  call void @_cmsAllocParallelizationPluginChunk(ptr noundef %91, ptr noundef %92)
  store i32 1, ptr %6, align 4
  br label %93

93:                                               ; preds = %107, %62
  %94 = load i32, ptr %6, align 4
  %95 = icmp slt i32 %94, 16
  br i1 %95, label %96, label %110

96:                                               ; preds = %93
  %97 = load ptr, ptr %8, align 8
  %98 = getelementptr inbounds %struct._cmsContext_struct, ptr %97, i32 0, i32 2
  %99 = load i32, ptr %6, align 4
  %100 = sext i32 %99 to i64
  %101 = getelementptr inbounds [16 x ptr], ptr %98, i64 0, i64 %100
  %102 = load ptr, ptr %101, align 8
  %103 = icmp eq ptr %102, null
  br i1 %103, label %104, label %106

104:                                              ; preds = %96
  %105 = load ptr, ptr %7, align 8
  call void @cmsDeleteContext(ptr noundef %105)
  store ptr null, ptr %3, align 8
  br label %112

106:                                              ; preds = %96
  br label %107

107:                                              ; preds = %106
  %108 = load i32, ptr %6, align 4
  %109 = add nsw i32 %108, 1
  store i32 %109, ptr %6, align 4
  br label %93, !llvm.loop !14

110:                                              ; preds = %93
  %111 = load ptr, ptr %7, align 8
  store ptr %111, ptr %3, align 8
  br label %112

112:                                              ; preds = %110, %104, %60, %31, %27
  %113 = load ptr, ptr %3, align 8
  ret ptr %113
}