; Function Attrs: nounwind uwtable
define hidden ptr @cmsDupContext(ptr noundef %0, ptr noundef %1) local_unnamed_addr #2 {
  %3 = alloca %struct._cmsContext_struct, align 8
  %4 = alloca %struct._cmsContext_struct, align 8
  %5 = icmp eq ptr %0, null
  br i1 %5, label %_cmsGetContext.exit, label %6

6:                                                ; preds = %2
  %7 = tail call i32 @pthread_mutex_lock(ptr noundef nonnull @_cmsContextPoolHeadMutex) #12
  br label %8

8:                                                ; preds = %9, %6
  %.0.in.i = phi ptr [ @_cmsContextPoolHead, %6 ], [ %.0.i, %9 ]
  %.0.i = load ptr, ptr %.0.in.i, align 8
  %.not.i = icmp eq ptr %.0.i, null
  br i1 %.not.i, label %.sink.split.i, label %9

9:                                                ; preds = %8
  %10 = icmp eq ptr %.0.i, %0
  br i1 %10, label %.sink.split.i, label %8, !llvm.loop !10

.sink.split.i:                                    ; preds = %9, %8
  %.08.ph.i = phi ptr [ %.0.i, %9 ], [ @globalContext, %8 ]
  %11 = tail call i32 @pthread_mutex_unlock(ptr noundef nonnull @_cmsContextPoolHeadMutex) #12
  br label %_cmsGetContext.exit

_cmsGetContext.exit:                              ; preds = %2, %.sink.split.i
  %.08.i = phi ptr [ @globalContext, %2 ], [ %.08.ph.i, %.sink.split.i ]
  %.not = icmp eq ptr %1, null
  br i1 %.not, label %12, label %15

12:                                               ; preds = %_cmsGetContext.exit
  %13 = getelementptr inbounds i8, ptr %.08.i, i64 16
  %14 = load ptr, ptr %13, align 8
  br label %15

15:                                               ; preds = %_cmsGetContext.exit, %12
  %16 = phi ptr [ %14, %12 ], [ %1, %_cmsGetContext.exit ]
  %17 = tail call ptr @_cmsMalloc(ptr noundef %0, i32 noundef 192) #12
  %18 = icmp eq ptr %17, null
  br i1 %18, label %.loopexit, label %19

19:                                               ; preds = %15
  %20 = getelementptr inbounds i8, ptr %17, i64 144
  %21 = getelementptr inbounds i8, ptr %.08.i, i64 144
  tail call void @llvm.memcpy.p0.p0.i64(ptr noundef nonnull align 8 dereferenceable(48) %20, ptr noundef nonnull align 8 dereferenceable(48) %21, i64 48, i1 false)
  %22 = tail call i32 @pthread_mutex_lock(ptr noundef nonnull @_cmsContextPoolHeadMutex) #12
  %23 = load ptr, ptr @_cmsContextPoolHead, align 8
  store ptr %23, ptr %17, align 8
  store ptr %17, ptr @_cmsContextPoolHead, align 8
  %24 = tail call i32 @pthread_mutex_unlock(ptr noundef nonnull @_cmsContextPoolHeadMutex) #12
  %25 = getelementptr inbounds i8, ptr %17, i64 16
  store ptr %16, ptr %25, align 8
  %26 = getelementptr inbounds i8, ptr %17, i64 48
  store ptr %20, ptr %26, align 8
  %27 = tail call ptr @_cmsCreateSubAlloc(ptr noundef nonnull %17, i32 noundef 176) #12
  %28 = getelementptr inbounds i8, ptr %17, i64 8
  store ptr %27, ptr %28, align 8
  %29 = icmp eq ptr %27, null
  br i1 %29, label %30, label %46

30:                                               ; preds = %19
  call void @llvm.lifetime.start.p0(i64 192, ptr nonnull %4)
  %31 = getelementptr inbounds i8, ptr %4, i64 144
  call void @llvm.memcpy.p0.p0.i64(ptr noundef nonnull align 8 dereferenceable(48) %31, ptr noundef nonnull align 8 dereferenceable(48) %20, i64 48, i1 false)
  %32 = load ptr, ptr %25, align 8
  %33 = getelementptr inbounds i8, ptr %4, i64 16
  store ptr %32, ptr %33, align 8
  %34 = getelementptr inbounds i8, ptr %4, i64 48
  store ptr %31, ptr %34, align 8
  call void @cmsUnregisterPluginsTHR(ptr noundef nonnull %17)
  %35 = load ptr, ptr %28, align 8
  %.not.i57 = icmp eq ptr %35, null
  br i1 %.not.i57, label %37, label %36

36:                                               ; preds = %30
  call void @_cmsSubAllocDestroy(ptr noundef nonnull %35) #12
  br label %37

37:                                               ; preds = %36, %30
  store ptr null, ptr %28, align 8
  %38 = call i32 @pthread_mutex_lock(ptr noundef nonnull @_cmsContextPoolHeadMutex) #12
  %39 = load ptr, ptr @_cmsContextPoolHead, align 8
  %40 = icmp eq ptr %39, %17
  br i1 %40, label %.loopexit.sink.split.i, label %.preheader.i

.preheader.i:                                     ; preds = %37, %41
  %.0.i58 = phi ptr [ %42, %41 ], [ %39, %37 ]
  %.not22.i = icmp eq ptr %.0.i58, null
  br i1 %.not22.i, label %cmsDeleteContext.exit, label %41

41:                                               ; preds = %.preheader.i
  %42 = load ptr, ptr %.0.i58, align 8
  %43 = icmp eq ptr %42, %17
  br i1 %43, label %.loopexit.sink.split.i, label %.preheader.i, !llvm.loop !13

.loopexit.sink.split.i:                           ; preds = %41, %37
  %.0.lcssa26.sink.i = phi ptr [ @_cmsContextPoolHead, %37 ], [ %.0.i58, %41 ]
  %44 = load ptr, ptr %17, align 8
  store ptr %44, ptr %.0.lcssa26.sink.i, align 8
  br label %cmsDeleteContext.exit

cmsDeleteContext.exit:                            ; preds = %.preheader.i, %.loopexit.sink.split.i
  %45 = call i32 @pthread_mutex_unlock(ptr noundef nonnull @_cmsContextPoolHeadMutex) #12
  call void @_cmsFree(ptr noundef nonnull %4, ptr noundef nonnull %17) #12
  call void @llvm.lifetime.end.p0(i64 192, ptr nonnull %4)
  br label %.loopexit

46:                                               ; preds = %19
  tail call void @_cmsAllocLogErrorChunk(ptr noundef nonnull %17, ptr noundef nonnull %.08.i) #12
  tail call void @_cmsAllocAlarmCodesChunk(ptr noundef nonnull %17, ptr noundef nonnull %.08.i) #12
  tail call void @_cmsAllocAdaptationStateChunk(ptr noundef nonnull %17, ptr noundef nonnull %.08.i) #12
  tail call void @_cmsAllocMemPluginChunk(ptr noundef nonnull %17, ptr noundef nonnull %.08.i) #12
  tail call void @_cmsAllocInterpPluginChunk(ptr noundef nonnull %17, ptr noundef nonnull %.08.i) #12
  tail call void @_cmsAllocCurvesPluginChunk(ptr noundef nonnull %17, ptr noundef nonnull %.08.i) #12
  tail call void @_cmsAllocFormattersPluginChunk(ptr noundef nonnull %17, ptr noundef nonnull %.08.i) #12
  tail call void @_cmsAllocTagTypePluginChunk(ptr noundef nonnull %17, ptr noundef nonnull %.08.i) #12
  tail call void @_cmsAllocMPETypePluginChunk(ptr noundef nonnull %17, ptr noundef nonnull %.08.i) #12
  tail call void @_cmsAllocTagPluginChunk(ptr noundef nonnull %17, ptr noundef nonnull %.08.i) #12
  tail call void @_cmsAllocIntentsPluginChunk(ptr noundef nonnull %17, ptr noundef nonnull %.08.i) #12
  tail call void @_cmsAllocOptimizationPluginChunk(ptr noundef nonnull %17, ptr noundef nonnull %.08.i) #12
  tail call void @_cmsAllocTransformPluginChunk(ptr noundef nonnull %17, ptr noundef nonnull %.08.i) #12
  tail call void @_cmsAllocMutexPluginChunk(ptr noundef nonnull %17, ptr noundef nonnull %.08.i) #12
  tail call void @_cmsAllocParallelizationPluginChunk(ptr noundef nonnull %17, ptr noundef nonnull %.08.i) #12
  %47 = getelementptr inbounds i8, ptr %.08.i, i64 16
  br label %49

48:                                               ; preds = %49
  %indvars.iv.next = add nuw nsw i64 %indvars.iv, 1
  %exitcond.not = icmp eq i64 %indvars.iv.next, 16
  br i1 %exitcond.not, label %.loopexit, label %49, !llvm.loop !14

49:                                               ; preds = %46, %48
  %indvars.iv = phi i64 [ 1, %46 ], [ %indvars.iv.next, %48 ]
  %50 = getelementptr inbounds [16 x ptr], ptr %47, i64 0, i64 %indvars.iv
  %51 = load ptr, ptr %50, align 8
  %52 = icmp eq ptr %51, null
  br i1 %52, label %53, label %48

53:                                               ; preds = %49
  call void @llvm.lifetime.start.p0(i64 192, ptr nonnull %3)
  %54 = getelementptr inbounds i8, ptr %3, i64 144
  call void @llvm.memcpy.p0.p0.i64(ptr noundef nonnull align 8 dereferenceable(48) %54, ptr noundef nonnull align 8 dereferenceable(48) %20, i64 48, i1 false)
  %55 = load ptr, ptr %25, align 8
  %56 = getelementptr inbounds i8, ptr %3, i64 16
  store ptr %55, ptr %56, align 8
  %57 = getelementptr inbounds i8, ptr %3, i64 48
  store ptr %54, ptr %57, align 8
  call void @cmsUnregisterPluginsTHR(ptr noundef nonnull %17)
  %58 = load ptr, ptr %28, align 8
  %.not.i59 = icmp eq ptr %58, null
  br i1 %.not.i59, label %60, label %59

59:                                               ; preds = %53
  call void @_cmsSubAllocDestroy(ptr noundef nonnull %58) #12
  br label %60

60:                                               ; preds = %59, %53
  store ptr null, ptr %28, align 8
  %61 = call i32 @pthread_mutex_lock(ptr noundef nonnull @_cmsContextPoolHeadMutex) #12
  %62 = load ptr, ptr @_cmsContextPoolHead, align 8
  %63 = icmp eq ptr %62, %17
  br i1 %63, label %.loopexit.sink.split.i63, label %.preheader.i60

.preheader.i60:                                   ; preds = %60, %64
  %.0.i61 = phi ptr [ %65, %64 ], [ %62, %60 ]
  %.not22.i62 = icmp eq ptr %.0.i61, null
  br i1 %.not22.i62, label %cmsDeleteContext.exit67, label %64

64:                                               ; preds = %.preheader.i60
  %65 = load ptr, ptr %.0.i61, align 8
  %66 = icmp eq ptr %65, %17
  br i1 %66, label %.loopexit.sink.split.i63, label %.preheader.i60, !llvm.loop !13

.loopexit.sink.split.i63:                         ; preds = %64, %60
  %.0.lcssa26.sink.i64 = phi ptr [ @_cmsContextPoolHead, %60 ], [ %.0.i61, %64 ]
  %67 = load ptr, ptr %17, align 8
  store ptr %67, ptr %.0.lcssa26.sink.i64, align 8
  br label %cmsDeleteContext.exit67

cmsDeleteContext.exit67:                          ; preds = %.preheader.i60, %.loopexit.sink.split.i63
  %68 = call i32 @pthread_mutex_unlock(ptr noundef nonnull @_cmsContextPoolHeadMutex) #12
  call void @_cmsFree(ptr noundef nonnull %3, ptr noundef nonnull %17) #12
  call void @llvm.lifetime.end.p0(i64 192, ptr nonnull %3)
  br label %.loopexit

.loopexit:                                        ; preds = %48, %15, %cmsDeleteContext.exit67, %cmsDeleteContext.exit
  %.0 = phi ptr [ null, %cmsDeleteContext.exit ], [ null, %cmsDeleteContext.exit67 ], [ null, %15 ], [ %17, %48 ]
  ret ptr %.0
}